target datalayout = "e-m:e-p270:32:32-p271:32:32-p272:64:64-i64:64-i128:128-f80:128-n8:16:32:64-S128"
target triple = "x86_64-pc-linux-gnu"

%struct.JsonUniqueParsingState = type { ptr, ptr, ptr, i32, i8 }
%struct.JsonUniqueStackEntry = type { ptr, i32 }

; Function Attrs: nounwind uwtable
define internal i32 @json_unique_object_start(ptr noundef %0) #0 {
  %2 = alloca i32, align 4
  %3 = alloca ptr, align 8
  %4 = alloca ptr, align 8
  %5 = alloca ptr, align 8
  %6 = alloca i32, align 4
  store ptr %0, ptr %3, align 8
  call void @llvm.lifetime.start.p0(i64 8, ptr %4) #14
  %7 = load ptr, ptr %3, align 8
  store ptr %7, ptr %4, align 8
  call void @llvm.lifetime.start.p0(i64 8, ptr %5) #14
  %8 = load ptr, ptr %4, align 8
  %9 = getelementptr inbounds nuw %struct.JsonUniqueParsingState, ptr %8, i32 0, i32 4
  %10 = load i8, ptr %9, align 4, !range !4, !noundef !5
  %11 = trunc i8 %10 to i1
  br i1 %11, label %13, label %12

12:                                               ; preds = %1
  store i32 0, ptr %2, align 4
  store i32 1, ptr %6, align 4
  br label %29

13:                                               ; preds = %1
  %14 = call ptr @palloc(i64 noundef 16)
  store ptr %14, ptr %5, align 8
  %15 = load ptr, ptr %4, align 8
  %16 = getelementptr inbounds nuw %struct.JsonUniqueParsingState, ptr %15, i32 0, i32 3
  %17 = load i32, ptr %16, align 8
  %18 = add i32 %17, 1
  store i32 %18, ptr %16, align 8
  %19 = load ptr, ptr %5, align 8
  %20 = getelementptr inbounds nuw %struct.JsonUniqueStackEntry, ptr %19, i32 0, i32 1
  store i32 %17, ptr %20, align 8
  %21 = load ptr, ptr %4, align 8
  %22 = getelementptr inbounds nuw %struct.JsonUniqueParsingState, ptr %21, i32 0, i32 2
  %23 = load ptr, ptr %22, align 8
  %24 = load ptr, ptr %5, align 8
  %25 = getelementptr inbounds nuw %struct.JsonUniqueStackEntry, ptr %24, i32 0, i32 0
  store ptr %23, ptr %25, align 8
  %26 = load ptr, ptr %5, align 8
  %27 = load ptr, ptr %4, align 8
  %28 = getelementptr inbounds nuw %struct.JsonUniqueParsingState, ptr %27, i32 0, i32 2
  store ptr %26, ptr %28, align 8
  store i32 0, ptr %2, align 4
  store i32 1, ptr %6, align 4
  br label %29

29:                                               ; preds = %13, %12
  call void @llvm.lifetime.end.p0(i64 8, ptr %5) #14
  call void @llvm.lifetime.end.p0(i64 8, ptr %4) #14
  %30 = load i32, ptr %2, align 4
  ret i32 %30
}