; Function Attrs: nounwind uwtable
define internal noundef i32 @json_unique_object_start(ptr noundef captures(none) %0) #0 {
  %2 = getelementptr inbounds nuw i8, ptr %0, i64 28
  %3 = load i8, ptr %2, align 4, !range !4, !noundef !5
  %4 = trunc nuw i8 %3 to i1
  br i1 %4, label %5, label %13

5:                                                ; preds = %1
  %6 = tail call ptr @palloc(i64 noundef 16) #10
  %7 = getelementptr inbounds nuw i8, ptr %0, i64 24
  %8 = load i32, ptr %7, align 8
  %9 = add i32 %8, 1
  store i32 %9, ptr %7, align 8
  %10 = getelementptr inbounds nuw i8, ptr %6, i64 8
  store i32 %8, ptr %10, align 8
  %11 = getelementptr inbounds nuw i8, ptr %0, i64 16
  %12 = load ptr, ptr %11, align 8
  store ptr %12, ptr %6, align 8
  store ptr %6, ptr %11, align 8
  br label %13

13:                                               ; preds = %1, %5
  ret i32 0
}